target datalayout = "e-m:e-p270:32:32-p271:32:32-p272:64:64-i64:64-i128:128-f80:128-n8:16:32:64-S128"
target triple = "x86_64-pc-linux-gnu"

@inet_pton4.digits = internal constant [11 x i8] c"0123456789\00", align 1

; Function Attrs: nounwind uwtable
define internal i32 @inet_pton4(ptr noundef %0, ptr noundef %1) #0 {
  %3 = alloca i32, align 4
  %4 = alloca ptr, align 8
  %5 = alloca ptr, align 8
  %6 = alloca i32, align 4
  %7 = alloca i32, align 4
  %8 = alloca i32, align 4
  %9 = alloca [4 x i8], align 1
  %10 = alloca ptr, align 8
  %11 = alloca ptr, align 8
  %12 = alloca i32, align 4
  %13 = alloca i32, align 4
  store ptr %0, ptr %4, align 8, !tbaa !10
  store ptr %1, ptr %5, align 8, !tbaa !10
  call void @llvm.lifetime.start.p0(i64 4, ptr %6) #7
  call void @llvm.lifetime.start.p0(i64 4, ptr %7) #7
  call void @llvm.lifetime.start.p0(i64 4, ptr %8) #7
  call void @llvm.lifetime.start.p0(i64 4, ptr %9) #7
  call void @llvm.lifetime.start.p0(i64 8, ptr %10) #7
  store i32 0, ptr %6, align 4, !tbaa !4
  store i32 0, ptr %7, align 4, !tbaa !4
  %14 = getelementptr inbounds [4 x i8], ptr %9, i64 0, i64 0
  store ptr %14, ptr %10, align 8, !tbaa !10
  store i8 0, ptr %14, align 1, !tbaa !14
  br label %15

15:                                               ; preds = %82, %2
  %16 = load ptr, ptr %4, align 8, !tbaa !10
  %17 = getelementptr inbounds nuw i8, ptr %16, i32 1
  store ptr %17, ptr %4, align 8, !tbaa !10
  %18 = load i8, ptr %16, align 1, !tbaa !14
  %19 = sext i8 %18 to i32
  store i32 %19, ptr %8, align 4, !tbaa !4
  %20 = icmp ne i32 %19, 0
  br i1 %20, label %21, label %83

21:                                               ; preds = %15
  call void @llvm.lifetime.start.p0(i64 8, ptr %11) #7
  %22 = load i32, ptr %8, align 4, !tbaa !4
  %23 = call ptr @strchr(ptr noundef @inet_pton4.digits, i32 noundef %22) #8
  store ptr %23, ptr %11, align 8, !tbaa !10
  %24 = icmp ne ptr %23, null
  br i1 %24, label %25, label %64

25:                                               ; preds = %21
  call void @llvm.lifetime.start.p0(i64 4, ptr %12) #7
  %26 = load ptr, ptr %10, align 8, !tbaa !10
  %27 = load i8, ptr %26, align 1, !tbaa !14
  %28 = zext i8 %27 to i32
  %29 = mul nsw i32 %28, 10
  %30 = sext i32 %29 to i64
  %31 = load ptr, ptr %11, align 8, !tbaa !10
  %32 = ptrtoint ptr %31 to i64
  %33 = sub i64 %32, ptrtoint (ptr @inet_pton4.digits to i64)
  %34 = add nsw i64 %30, %33
  %35 = trunc i64 %34 to i32
  store i32 %35, ptr %12, align 4, !tbaa !4
  %36 = load i32, ptr %6, align 4, !tbaa !4
  %37 = icmp ne i32 %36, 0
  br i1 %37, label %38, label %44

38:                                               ; preds = %25
  %39 = load ptr, ptr %10, align 8, !tbaa !10
  %40 = load i8, ptr %39, align 1, !tbaa !14
  %41 = zext i8 %40 to i32
  %42 = icmp eq i32 %41, 0
  br i1 %42, label %43, label %44

43:                                               ; preds = %38
  store i32 -22, ptr %3, align 4
  store i32 1, ptr %13, align 4
  br label %61

44:                                               ; preds = %38, %25
  %45 = load i32, ptr %12, align 4, !tbaa !4
  %46 = icmp ugt i32 %45, 255
  br i1 %46, label %47, label %48

47:                                               ; preds = %44
  store i32 -22, ptr %3, align 4
  store i32 1, ptr %13, align 4
  br label %61

48:                                               ; preds = %44
  %49 = load i32, ptr %12, align 4, !tbaa !4
  %50 = trunc i32 %49 to i8
  %51 = load ptr, ptr %10, align 8, !tbaa !10
  store i8 %50, ptr %51, align 1, !tbaa !14
  %52 = load i32, ptr %6, align 4, !tbaa !4
  %53 = icmp ne i32 %52, 0
  br i1 %53, label %60, label %54

54:                                               ; preds = %48
  %55 = load i32, ptr %7, align 4, !tbaa !4
  %56 = add nsw i32 %55, 1
  store i32 %56, ptr %7, align 4, !tbaa !4
  %57 = icmp sgt i32 %56, 4
  br i1 %57, label %58, label %59

58:                                               ; preds = %54
  store i32 -22, ptr %3, align 4
  store i32 1, ptr %13, align 4
  br label %61

59:                                               ; preds = %54
  store i32 1, ptr %6, align 4, !tbaa !4
  br label %60

60:                                               ; preds = %59, %48
  store i32 0, ptr %13, align 4
  br label %61

61:                                               ; preds = %60, %58, %47, %43
  call void @llvm.lifetime.end.p0(i64 4, ptr %12) #7
  %62 = load i32, ptr %13, align 4
  switch i32 %62, label %80 [
    i32 0, label %63
  ]

63:                                               ; preds = %61
  br label %79

64:                                               ; preds = %21
  %65 = load i32, ptr %8, align 4, !tbaa !4
  %66 = icmp eq i32 %65, 46
  br i1 %66, label %67, label %77

67:                                               ; preds = %64
  %68 = load i32, ptr %6, align 4, !tbaa !4
  %69 = icmp ne i32 %68, 0
  br i1 %69, label %70, label %77

70:                                               ; preds = %67
  %71 = load i32, ptr %7, align 4, !tbaa !4
  %72 = icmp eq i32 %71, 4
  br i1 %72, label %73, label %74

73:                                               ; preds = %70
  store i32 -22, ptr %3, align 4
  store i32 1, ptr %13, align 4
  br label %80

74:                                               ; preds = %70
  %75 = load ptr, ptr %10, align 8, !tbaa !10
  %76 = getelementptr inbounds nuw i8, ptr %75, i32 1
  store ptr %76, ptr %10, align 8, !tbaa !10
  store i8 0, ptr %76, align 1, !tbaa !14
  store i32 0, ptr %6, align 4, !tbaa !4
  br label %78

77:                                               ; preds = %67, %64
  store i32 -22, ptr %3, align 4
  store i32 1, ptr %13, align 4
  br label %80

78:                                               ; preds = %74
  br label %79

79:                                               ; preds = %78, %63
  store i32 0, ptr %13, align 4
  br label %80

80:                                               ; preds = %79, %77, %73, %61
  call void @llvm.lifetime.end.p0(i64 8, ptr %11) #7
  %81 = load i32, ptr %13, align 4
  switch i32 %81, label %90 [
    i32 0, label %82
  ]

82:                                               ; preds = %80
  br label %15, !llvm.loop !23

83:                                               ; preds = %15
  %84 = load i32, ptr %7, align 4, !tbaa !4
  %85 = icmp slt i32 %84, 4
  br i1 %85, label %86, label %87

86:                                               ; preds = %83
  store i32 -22, ptr %3, align 4
  store i32 1, ptr %13, align 4
  br label %90

87:                                               ; preds = %83
  %88 = load ptr, ptr %5, align 8, !tbaa !10
  %89 = getelementptr inbounds [4 x i8], ptr %9, i64 0, i64 0
  call void @llvm.memcpy.p0.p0.i64(ptr align 1 %88, ptr align 1 %89, i64 4, i1 false)
  store i32 0, ptr %3, align 4
  store i32 1, ptr %13, align 4
  br label %90

90:                                               ; preds = %87, %86, %80
  call void @llvm.lifetime.end.p0(i64 8, ptr %10) #7
  call void @llvm.lifetime.end.p0(i64 4, ptr %9) #7
  call void @llvm.lifetime.end.p0(i64 4, ptr %8) #7
  call void @llvm.lifetime.end.p0(i64 4, ptr %7) #7
  call void @llvm.lifetime.end.p0(i64 4, ptr %6) #7
  %91 = load i32, ptr %3, align 4
  ret i32 %91
}