; Function Attrs: nofree nounwind memory(argmem: readwrite) uwtable
define internal fastcc range(i32 -22, 1) i32 @inet_pton4(ptr noundef nonnull readonly captures(none) %0, ptr noundef nonnull writeonly captures(none) %1) unnamed_addr #2 {
  %3 = alloca [4 x i8], align 4
  call void @llvm.lifetime.start.p0(i64 4, ptr nonnull %3) #10
  store i8 0, ptr %3, align 4, !tbaa !4
  br label %.outer

.outer:                                           ; preds = %.split.us, %2
  %4 = phi i8 [ %39, %.split.us ], [ 0, %2 ]
  %.032.ph = phi i32 [ %40, %.split.us ], [ 0, %2 ]
  %.027.ph = phi i1 [ true, %.split.us ], [ false, %2 ]
  %.024.ph = phi ptr [ %.us-phi, %.split.us ], [ %3, %2 ]
  %.023.ph = phi ptr [ %.us-phi76, %.split.us ], [ %0, %2 ]
  %.not80 = icmp eq i32 %.032.ph, 4
  br i1 %.not80, label %.outer.split.us, label %.outer54

5:                                                ; preds = %.outer.split.us
  %6 = sext i8 %20 to i32
  %memchr.us = tail call ptr @memchr(ptr noundef nonnull dereferenceable(1) @inet_pton4.digits, i32 %6, i64 11)
  %.not42.us = icmp eq ptr %memchr.us, null
  br i1 %.not42.us, label %.thread, label %7

7:                                                ; preds = %5
  %8 = zext i8 %18 to i32
  %9 = mul nuw nsw i32 %8, 10
  %10 = ptrtoint ptr %memchr.us to i64
  %11 = trunc i64 %10 to i32
  %12 = sub i32 %11, ptrtoint (ptr @inet_pton4.digits to i32)
  %13 = add i32 %9, %12
  %14 = icmp eq i8 %18, 0
  %or.cond44.us = select i1 %.027.us, i1 %14, i1 false
  %15 = icmp ugt i32 %13, 255
  %or.cond51.us = select i1 %or.cond44.us, i1 true, i1 %15
  br i1 %or.cond51.us, label %.thread, label %16

16:                                               ; preds = %7
  %17 = trunc nuw i32 %13 to i8
  store i8 %17, ptr %.024.ph, align 1, !tbaa !4
  br i1 %.027.us, label %.outer.split.us, label %.split.us, !llvm.loop !15

.outer.split.us:                                  ; preds = %.outer, %16
  %18 = phi i8 [ %17, %16 ], [ %4, %.outer ]
  %.027.us = phi i1 [ true, %16 ], [ %.027.ph, %.outer ]
  %.023.us = phi ptr [ %19, %16 ], [ %.023.ph, %.outer ]
  %19 = getelementptr inbounds nuw i8, ptr %.023.us, i64 1
  %20 = load i8, ptr %.023.us, align 1, !tbaa !4
  %.not.us = icmp eq i8 %20, 0
  br i1 %.not.us, label %.split78.us.thread, label %5

.outer54:                                         ; preds = %.outer, %43
  %21 = phi i8 [ 0, %43 ], [ %4, %.outer ]
  %.027.ph55 = phi i1 [ false, %43 ], [ %.027.ph, %.outer ]
  %.024.ph56 = phi ptr [ %44, %43 ], [ %.024.ph, %.outer ]
  %.023.ph57 = phi ptr [ %24, %43 ], [ %.023.ph, %.outer ]
  br label %22

22:                                               ; preds = %.outer54, %37
  %23 = phi i8 [ %38, %37 ], [ %21, %.outer54 ]
  %.027 = phi i1 [ true, %37 ], [ %.027.ph55, %.outer54 ]
  %.023 = phi ptr [ %24, %37 ], [ %.023.ph57, %.outer54 ]
  %24 = getelementptr inbounds nuw i8, ptr %.023, i64 1
  %25 = load i8, ptr %.023, align 1, !tbaa !4
  %.not = icmp eq i8 %25, 0
  br i1 %.not, label %.split78.us, label %26

26:                                               ; preds = %22
  %27 = sext i8 %25 to i32
  %memchr = tail call ptr @memchr(ptr noundef nonnull dereferenceable(1) @inet_pton4.digits, i32 %27, i64 11)
  %.not42 = icmp eq ptr %memchr, null
  br i1 %.not42, label %41, label %28

28:                                               ; preds = %26
  %29 = zext i8 %23 to i32
  %30 = mul nuw nsw i32 %29, 10
  %31 = ptrtoint ptr %memchr to i64
  %32 = trunc i64 %31 to i32
  %33 = sub i32 %32, ptrtoint (ptr @inet_pton4.digits to i32)
  %34 = add i32 %30, %33
  %35 = icmp eq i8 %23, 0
  %or.cond44 = select i1 %.027, i1 %35, i1 false
  %36 = icmp ugt i32 %34, 255
  %or.cond51 = select i1 %or.cond44, i1 true, i1 %36
  br i1 %or.cond51, label %.thread, label %37

37:                                               ; preds = %28
  %38 = trunc nuw i32 %34 to i8
  store i8 %38, ptr %.024.ph56, align 1, !tbaa !4
  br i1 %.027, label %22, label %.split.us, !llvm.loop !15

.split.us:                                        ; preds = %16, %37
  %39 = phi i8 [ %38, %37 ], [ %17, %16 ]
  %.us-phi = phi ptr [ %.024.ph56, %37 ], [ %.024.ph, %16 ]
  %.us-phi76 = phi ptr [ %24, %37 ], [ %19, %16 ]
  %40 = add nuw nsw i32 %.032.ph, 1
  %exitcond.not = icmp eq i32 %40, 5
  br i1 %exitcond.not, label %.thread, label %.outer, !llvm.loop !15

41:                                               ; preds = %26
  %42 = icmp eq i8 %25, 46
  %or.cond = and i1 %.027, %42
  br i1 %or.cond, label %43, label %.thread

43:                                               ; preds = %41
  %44 = getelementptr inbounds nuw i8, ptr %.024.ph56, i64 1
  store i8 0, ptr %44, align 1, !tbaa !4
  br label %.outer54, !llvm.loop !15

.split78.us:                                      ; preds = %22
  %45 = icmp samesign ult i32 %.032.ph, 4
  br i1 %45, label %.thread, label %.split78.us.thread

.split78.us.thread:                               ; preds = %.outer.split.us, %.split78.us
  %46 = load i32, ptr %3, align 4
  store i32 %46, ptr %1, align 1
  br label %.thread

.thread:                                          ; preds = %.split.us, %41, %5, %7, %28, %.split78.us, %.split78.us.thread
  %.4 = phi i32 [ 0, %.split78.us.thread ], [ -22, %.split78.us ], [ -22, %28 ], [ -22, %7 ], [ -22, %5 ], [ -22, %41 ], [ -22, %.split.us ]
  call void @llvm.lifetime.end.p0(i64 4, ptr nonnull %3) #10
  ret i32 %.4
}